; Function Attrs: mustprogress uwtable
define internal noundef zeroext i1 @"_ZNSt17_Function_handlerIFvvEZN2cv4gapi3wip11async_applyERNS1_12GComputationEOSt6vectorINS1_7GRunArgESaIS7_EEOS6_INS1_4util7variantIJPNS1_4UMatEPNS1_3MatEPNS1_4RMatEPNS1_7Scalar_IdEEPNS1_10MediaFrameENS1_6detail9VectorRefENSO_9OpaqueRefEEEESaISR_EEOS6_INS1_11GCompileArgESaISV_EERNS3_13GAsyncContextEE3$_0E10_M_managerERSt9_Any_dataRKS13_St18_Manager_operation"(ptr nocapture noundef nonnull align 8 dereferenceable(16) %0, ptr nocapture noundef nonnull readonly align 8 dereferenceable(16) %1, i32 noundef %2) #2 align 2 personality ptr @__gxx_personality_v0 {
  switch i32 %2, label %"_ZNSt14_Function_base13_Base_managerIZN2cv4gapi3wip11async_applyERNS1_12GComputationEOSt6vectorINS1_7GRunArgESaIS7_EEOS6_INS1_4util7variantIJPNS1_4UMatEPNS1_3MatEPNS1_4RMatEPNS1_7Scalar_IdEEPNS1_10MediaFrameENS1_6detail9VectorRefENSO_9OpaqueRefEEEESaISR_EEOS6_INS1_11GCompileArgESaISV_EERNS3_13GAsyncContextEE3$_0E10_M_managerERSt9_Any_dataRKS13_St18_Manager_operation.exit" [
    i32 0, label %4
    i32 1, label %5
    i32 3, label %10
    i32 2, label %6
  ]

4:                                                ; preds = %3
  store ptr @"_ZTIZN2cv4gapi3wip11async_applyERNS_12GComputationEOSt6vectorINS_7GRunArgESaIS5_EEOS4_INS_4util7variantIJPNS_4UMatEPNS_3MatEPNS_4RMatEPNS_7Scalar_IdEEPNS_10MediaFrameENS_6detail9VectorRefENSM_9OpaqueRefEEEESaISP_EEOS4_INS_11GCompileArgESaIST_EERNS1_13GAsyncContextEE3$_0", ptr %0, align 8
  br label %"_ZNSt14_Function_base13_Base_managerIZN2cv4gapi3wip11async_applyERNS1_12GComputationEOSt6vectorINS1_7GRunArgESaIS7_EEOS6_INS1_4util7variantIJPNS1_4UMatEPNS1_3MatEPNS1_4RMatEPNS1_7Scalar_IdEEPNS1_10MediaFrameENS1_6detail9VectorRefENSO_9OpaqueRefEEEESaISR_EEOS6_INS1_11GCompileArgESaISV_EERNS3_13GAsyncContextEE3$_0E10_M_managerERSt9_Any_dataRKS13_St18_Manager_operation.exit"

5:                                                ; preds = %3
  %.val = load ptr, ptr %1, align 8
  store ptr %.val, ptr %0, align 8
  br label %"_ZNSt14_Function_base13_Base_managerIZN2cv4gapi3wip11async_applyERNS1_12GComputationEOSt6vectorINS1_7GRunArgESaIS7_EEOS6_INS1_4util7variantIJPNS1_4UMatEPNS1_3MatEPNS1_4RMatEPNS1_7Scalar_IdEEPNS1_10MediaFrameENS1_6detail9VectorRefENSO_9OpaqueRefEEEESaISR_EEOS6_INS1_11GCompileArgESaISV_EERNS3_13GAsyncContextEE3$_0E10_M_managerERSt9_Any_dataRKS13_St18_Manager_operation.exit"

6:                                                ; preds = %3
  %.val6 = load ptr, ptr %1, align 8
  %7 = tail call noalias noundef nonnull dereferenceable(120) ptr @_Znwm(i64 noundef 120) #21
  invoke fastcc void @"_ZZN2cv4gapi3wip11async_applyERNS_12GComputationEOSt6vectorINS_7GRunArgESaIS5_EEOS4_INS_4util7variantIJPNS_4UMatEPNS_3MatEPNS_4RMatEPNS_7Scalar_IdEEPNS_10MediaFrameENS_6detail9VectorRefENSM_9OpaqueRefEEEESaISP_EEOS4_INS_11GCompileArgESaIST_EERNS1_13GAsyncContextEEN3$_0C2ERKSZ_"(ptr noundef nonnull align 8 dereferenceable(120) %7, ptr noundef nonnull align 8 dereferenceable(120) %.val6)
          to label %"_ZNSt14_Function_base13_Base_managerIZN2cv4gapi3wip11async_applyERNS1_12GComputationEOSt6vectorINS1_7GRunArgESaIS7_EEOS6_INS1_4util7variantIJPNS1_4UMatEPNS1_3MatEPNS1_4RMatEPNS1_7Scalar_IdEEPNS1_10MediaFrameENS1_6detail9VectorRefENSO_9OpaqueRefEEEESaISR_EEOS6_INS1_11GCompileArgESaISV_EERNS3_13GAsyncContextEE3$_0E15_M_init_functorIRKS11_EEvRSt9_Any_dataOT_.exit.i" unwind label %8

8:                                                ; preds = %6
  %9 = landingpad { ptr, i32 }
          cleanup
  tail call void @_ZdlPv(ptr noundef nonnull %7) #22
  resume { ptr, i32 } %9

"_ZNSt14_Function_base13_Base_managerIZN2cv4gapi3wip11async_applyERNS1_12GComputationEOSt6vectorINS1_7GRunArgESaIS7_EEOS6_INS1_4util7variantIJPNS1_4UMatEPNS1_3MatEPNS1_4RMatEPNS1_7Scalar_IdEEPNS1_10MediaFrameENS1_6detail9VectorRefENSO_9OpaqueRefEEEESaISR_EEOS6_INS1_11GCompileArgESaISV_EERNS3_13GAsyncContextEE3$_0E15_M_init_functorIRKS11_EEvRSt9_Any_dataOT_.exit.i": ; preds = %6
  store ptr %7, ptr %0, align 8
  br label %"_ZNSt14_Function_base13_Base_managerIZN2cv4gapi3wip11async_applyERNS1_12GComputationEOSt6vectorINS1_7GRunArgESaIS7_EEOS6_INS1_4util7variantIJPNS1_4UMatEPNS1_3MatEPNS1_4RMatEPNS1_7Scalar_IdEEPNS1_10MediaFrameENS1_6detail9VectorRefENSO_9OpaqueRefEEEESaISR_EEOS6_INS1_11GCompileArgESaISV_EERNS3_13GAsyncContextEE3$_0E10_M_managerERSt9_Any_dataRKS13_St18_Manager_operation.exit"

10:                                               ; preds = %3
  %.val7.i = load ptr, ptr %0, align 8
  %11 = icmp eq ptr %.val7.i, null
  br i1 %11, label %"_ZNSt14_Function_base13_Base_managerIZN2cv4gapi3wip11async_applyERNS1_12GComputationEOSt6vectorINS1_7GRunArgESaIS7_EEOS6_INS1_4util7variantIJPNS1_4UMatEPNS1_3MatEPNS1_4RMatEPNS1_7Scalar_IdEEPNS1_10MediaFrameENS1_6detail9VectorRefENSO_9OpaqueRefEEEESaISR_EEOS6_INS1_11GCompileArgESaISV_EERNS3_13GAsyncContextEE3$_0E10_M_managerERSt9_Any_dataRKS13_St18_Manager_operation.exit", label %12

12:                                               ; preds = %10
  tail call fastcc void @"_ZZN2cv4gapi3wip11async_applyERNS_12GComputationEOSt6vectorINS_7GRunArgESaIS5_EEOS4_INS_4util7variantIJPNS_4UMatEPNS_3MatEPNS_4RMatEPNS_7Scalar_IdEEPNS_10MediaFrameENS_6detail9VectorRefENSM_9OpaqueRefEEEESaISP_EEOS4_INS_11GCompileArgESaIST_EERNS1_13GAsyncContextEEN3$_0D2Ev"(ptr noundef nonnull align 8 dereferenceable(120) %.val7.i) #20
  tail call void @_ZdlPv(ptr noundef nonnull %.val7.i) #22
  br label %"_ZNSt14_Function_base13_Base_managerIZN2cv4gapi3wip11async_applyERNS1_12GComputationEOSt6vectorINS1_7GRunArgESaIS7_EEOS6_INS1_4util7variantIJPNS1_4UMatEPNS1_3MatEPNS1_4RMatEPNS1_7Scalar_IdEEPNS1_10MediaFrameENS1_6detail9VectorRefENSO_9OpaqueRefEEEESaISR_EEOS6_INS1_11GCompileArgESaISV_EERNS3_13GAsyncContextEE3$_0E10_M_managerERSt9_Any_dataRKS13_St18_Manager_operation.exit"

"_ZNSt14_Function_base13_Base_managerIZN2cv4gapi3wip11async_applyERNS1_12GComputationEOSt6vectorINS1_7GRunArgESaIS7_EEOS6_INS1_4util7variantIJPNS1_4UMatEPNS1_3MatEPNS1_4RMatEPNS1_7Scalar_IdEEPNS1_10MediaFrameENS1_6detail9VectorRefENSO_9OpaqueRefEEEESaISR_EEOS6_INS1_11GCompileArgESaISV_EERNS3_13GAsyncContextEE3$_0E10_M_managerERSt9_Any_dataRKS13_St18_Manager_operation.exit": ; preds = %3, %12, %10, %"_ZNSt14_Function_base13_Base_managerIZN2cv4gapi3wip11async_applyERNS1_12GComputationEOSt6vectorINS1_7GRunArgESaIS7_EEOS6_INS1_4util7variantIJPNS1_4UMatEPNS1_3MatEPNS1_4RMatEPNS1_7Scalar_IdEEPNS1_10MediaFrameENS1_6detail9VectorRefENSO_9OpaqueRefEEEESaISR_EEOS6_INS1_11GCompileArgESaISV_EERNS3_13GAsyncContextEE3$_0E15_M_init_functorIRKS11_EEvRSt9_Any_dataOT_.exit.i", %5, %4
  ret i1 false
}